target datalayout = "e-m:e-p270:32:32-p271:32:32-p272:64:64-i64:64-i128:128-f80:128-n8:16:32:64-S128"
target triple = "x86_64-pc-linux-gnu"

; Function Attrs: mustprogress nounwind uwtable
define ptr @u_skipWhitespace(ptr noundef %0) #0 {
  %2 = alloca ptr, align 8
  store ptr %0, ptr %2, align 8, !tbaa !3
  br label %3

3:                                                ; preds = %25, %1
  %4 = load ptr, ptr %2, align 8, !tbaa !3
  %5 = load i8, ptr %4, align 1, !tbaa !8
  %6 = sext i8 %5 to i32
  %7 = icmp eq i32 %6, 32
  br i1 %7, label %23, label %8

8:                                                ; preds = %3
  %9 = load ptr, ptr %2, align 8, !tbaa !3
  %10 = load i8, ptr %9, align 1, !tbaa !8
  %11 = sext i8 %10 to i32
  %12 = icmp eq i32 %11, 9
  br i1 %12, label %23, label %13

13:                                               ; preds = %8
  %14 = load ptr, ptr %2, align 8, !tbaa !3
  %15 = load i8, ptr %14, align 1, !tbaa !8
  %16 = sext i8 %15 to i32
  %17 = icmp eq i32 %16, 13
  br i1 %17, label %23, label %18

18:                                               ; preds = %13
  %19 = load ptr, ptr %2, align 8, !tbaa !3
  %20 = load i8, ptr %19, align 1, !tbaa !8
  %21 = sext i8 %20 to i32
  %22 = icmp eq i32 %21, 10
  br label %23

23:                                               ; preds = %18, %13, %8, %3
  %24 = phi i1 [ true, %13 ], [ true, %8 ], [ true, %3 ], [ %22, %18 ]
  br i1 %24, label %25, label %28

25:                                               ; preds = %23
  %26 = load ptr, ptr %2, align 8, !tbaa !3
  %27 = getelementptr inbounds nuw i8, ptr %26, i32 1
  store ptr %27, ptr %2, align 8, !tbaa !3
  br label %3, !llvm.loop !9

28:                                               ; preds = %23
  %29 = load ptr, ptr %2, align 8, !tbaa !3
  ret ptr %29
}

; Function Attrs: inlinehint mustprogress nounwind uwtable
define internal noundef signext i8 @_ZL9U_FAILURE10UErrorCode(i32 noundef %0) #4 {
  %2 = alloca i32, align 4
  store i32 %0, ptr %2, align 4, !tbaa !18
  %3 = load i32, ptr %2, align 4, !tbaa !18
  %4 = icmp sgt i32 %3, 0
  %5 = zext i1 %4 to i8
  ret i8 %5
}

; Function Attrs: mustprogress uwtable
define i32 @u_parseCodePointRangeAnyTerminator(ptr noundef %0, ptr noundef %1, ptr noundef %2, ptr noundef %3, ptr noundef %4) #3 {
  %6 = alloca i32, align 4
  %7 = alloca ptr, align 8
  %8 = alloca ptr, align 8
  %9 = alloca ptr, align 8
  %10 = alloca ptr, align 8
  %11 = alloca ptr, align 8
  %12 = alloca ptr, align 8
  %13 = alloca i32, align 4
  %14 = alloca i32, align 4
  store ptr %0, ptr %7, align 8, !tbaa !3
  store ptr %1, ptr %8, align 8, !tbaa !26
  store ptr %2, ptr %9, align 8, !tbaa !26
  store ptr %3, ptr %10, align 8, !tbaa !12
  store ptr %4, ptr %11, align 8, !tbaa !17
  call void @llvm.lifetime.start.p0(i64 8, ptr %12) #7
  call void @llvm.lifetime.start.p0(i64 4, ptr %13) #7
  %15 = load ptr, ptr %11, align 8, !tbaa !17
  %16 = load i32, ptr %15, align 4, !tbaa !18
  %17 = call noundef signext i8 @_ZL9U_FAILURE10UErrorCode(i32 noundef %16)
  %18 = icmp ne i8 %17, 0
  br i1 %18, label %19, label %20

19:                                               ; preds = %5
  store i32 0, ptr %6, align 4
  store i32 1, ptr %14, align 4
  br label %96

20:                                               ; preds = %5
  %21 = load ptr, ptr %7, align 8, !tbaa !3
  %22 = icmp eq ptr %21, null
  br i1 %22, label %29, label %23

23:                                               ; preds = %20
  %24 = load ptr, ptr %8, align 8, !tbaa !26
  %25 = icmp eq ptr %24, null
  br i1 %25, label %29, label %26

26:                                               ; preds = %23
  %27 = load ptr, ptr %9, align 8, !tbaa !26
  %28 = icmp eq ptr %27, null
  br i1 %28, label %29, label %31

29:                                               ; preds = %26, %23, %20
  %30 = load ptr, ptr %11, align 8, !tbaa !17
  store i32 1, ptr %30, align 4, !tbaa !18
  store i32 0, ptr %6, align 4
  store i32 1, ptr %14, align 4
  br label %96

31:                                               ; preds = %26
  %32 = load ptr, ptr %7, align 8, !tbaa !3
  %33 = call ptr @u_skipWhitespace(ptr noundef %32)
  store ptr %33, ptr %7, align 8, !tbaa !3
  %34 = load ptr, ptr %7, align 8, !tbaa !3
  %35 = call i64 @strtoul(ptr noundef %34, ptr noundef %12, i32 noundef 16) #7
  %36 = trunc i64 %35 to i32
  store i32 %36, ptr %13, align 4, !tbaa !15
  %37 = load ptr, ptr %12, align 8, !tbaa !3
  %38 = load ptr, ptr %7, align 8, !tbaa !3
  %39 = icmp ule ptr %37, %38
  br i1 %39, label %43, label %40

40:                                               ; preds = %31
  %41 = load i32, ptr %13, align 4, !tbaa !15
  %42 = icmp uge i32 %41, 1114112
  br i1 %42, label %43, label %45

43:                                               ; preds = %40, %31
  %44 = load ptr, ptr %11, align 8, !tbaa !17
  store i32 9, ptr %44, align 4, !tbaa !18
  store i32 0, ptr %6, align 4
  store i32 1, ptr %14, align 4
  br label %96

45:                                               ; preds = %40
  %46 = load i32, ptr %13, align 4, !tbaa !15
  %47 = load ptr, ptr %9, align 8, !tbaa !26
  store i32 %46, ptr %47, align 4, !tbaa !15
  %48 = load ptr, ptr %8, align 8, !tbaa !26
  store i32 %46, ptr %48, align 4, !tbaa !15
  %49 = load ptr, ptr %12, align 8, !tbaa !3
  %50 = call ptr @u_skipWhitespace(ptr noundef %49)
  store ptr %50, ptr %7, align 8, !tbaa !3
  %51 = load ptr, ptr %7, align 8, !tbaa !3
  %52 = load i8, ptr %51, align 1, !tbaa !8
  %53 = sext i8 %52 to i32
  %54 = icmp ne i32 %53, 46
  br i1 %54, label %61, label %55

55:                                               ; preds = %45
  %56 = load ptr, ptr %7, align 8, !tbaa !3
  %57 = getelementptr inbounds i8, ptr %56, i64 1
  %58 = load i8, ptr %57, align 1, !tbaa !8
  %59 = sext i8 %58 to i32
  %60 = icmp ne i32 %59, 46
  br i1 %60, label %61, label %64

61:                                               ; preds = %55, %45
  %62 = load ptr, ptr %12, align 8, !tbaa !3
  %63 = load ptr, ptr %10, align 8, !tbaa !12
  store ptr %62, ptr %63, align 8, !tbaa !3
  store i32 1, ptr %6, align 4
  store i32 1, ptr %14, align 4
  br label %96

64:                                               ; preds = %55
  %65 = load ptr, ptr %7, align 8, !tbaa !3
  %66 = getelementptr inbounds i8, ptr %65, i64 2
  %67 = call ptr @u_skipWhitespace(ptr noundef %66)
  store ptr %67, ptr %7, align 8, !tbaa !3
  %68 = load ptr, ptr %7, align 8, !tbaa !3
  %69 = call i64 @strtoul(ptr noundef %68, ptr noundef %12, i32 noundef 16) #7
  %70 = trunc i64 %69 to i32
  store i32 %70, ptr %13, align 4, !tbaa !15
  %71 = load ptr, ptr %12, align 8, !tbaa !3
  %72 = load ptr, ptr %7, align 8, !tbaa !3
  %73 = icmp ule ptr %71, %72
  br i1 %73, label %77, label %74

74:                                               ; preds = %64
  %75 = load i32, ptr %13, align 4, !tbaa !15
  %76 = icmp uge i32 %75, 1114112
  br i1 %76, label %77, label %79

77:                                               ; preds = %74, %64
  %78 = load ptr, ptr %11, align 8, !tbaa !17
  store i32 9, ptr %78, align 4, !tbaa !18
  store i32 0, ptr %6, align 4
  store i32 1, ptr %14, align 4
  br label %96

79:                                               ; preds = %74
  %80 = load i32, ptr %13, align 4, !tbaa !15
  %81 = load ptr, ptr %9, align 8, !tbaa !26
  store i32 %80, ptr %81, align 4, !tbaa !15
  %82 = load i32, ptr %13, align 4, !tbaa !15
  %83 = load ptr, ptr %8, align 8, !tbaa !26
  %84 = load i32, ptr %83, align 4, !tbaa !15
  %85 = icmp ult i32 %82, %84
  br i1 %85, label %86, label %88

86:                                               ; preds = %79
  %87 = load ptr, ptr %11, align 8, !tbaa !17
  store i32 9, ptr %87, align 4, !tbaa !18
  store i32 0, ptr %6, align 4
  store i32 1, ptr %14, align 4
  br label %96

88:                                               ; preds = %79
  %89 = load ptr, ptr %12, align 8, !tbaa !3
  %90 = load ptr, ptr %10, align 8, !tbaa !12
  store ptr %89, ptr %90, align 8, !tbaa !3
  %91 = load i32, ptr %13, align 4, !tbaa !15
  %92 = load ptr, ptr %8, align 8, !tbaa !26
  %93 = load i32, ptr %92, align 4, !tbaa !15
  %94 = sub i32 %91, %93
  %95 = add i32 %94, 1
  store i32 %95, ptr %6, align 4
  store i32 1, ptr %14, align 4
  br label %96

96:                                               ; preds = %88, %86, %77, %61, %43, %29, %19
  call void @llvm.lifetime.end.p0(i64 4, ptr %13) #7
  call void @llvm.lifetime.end.p0(i64 8, ptr %12) #7
  %97 = load i32, ptr %6, align 4
  ret i32 %97
}