; Function Attrs: mustprogress nofree nounwind uwtable
define range(i32 0, 1114113) i32 @u_parseCodePointRangeAnyTerminator(ptr noundef %0, ptr noundef %1, ptr noundef writeonly %2, ptr noundef writeonly captures(none) %3, ptr noundef captures(none) %4) local_unnamed_addr #6 {
  %6 = alloca ptr, align 8
  call void @llvm.lifetime.start.p0(i64 8, ptr nonnull %6) #9
  %7 = load i32, ptr %4, align 4, !tbaa !9
  %8 = icmp slt i32 %7, 1
  br i1 %8, label %9, label %47

9:                                                ; preds = %5
  %10 = icmp eq ptr %0, null
  %11 = icmp eq ptr %1, null
  %or.cond = or i1 %10, %11
  %12 = icmp eq ptr %2, null
  %or.cond3 = or i1 %or.cond, %12
  br i1 %or.cond3, label %13, label %.preheader

13:                                               ; preds = %9
  store i32 1, ptr %4, align 4, !tbaa !9
  br label %47

.preheader:                                       ; preds = %9, %.critedge.i
  %.0.i = phi ptr [ %15, %.critedge.i ], [ %0, %9 ]
  %14 = load i8, ptr %.0.i, align 1, !tbaa !3
  switch i8 %14, label %u_skipWhitespace.exit [
    i8 32, label %.critedge.i
    i8 9, label %.critedge.i
    i8 13, label %.critedge.i
    i8 10, label %.critedge.i
  ]

.critedge.i:                                      ; preds = %.preheader, %.preheader, %.preheader, %.preheader
  %15 = getelementptr inbounds nuw i8, ptr %.0.i, i64 1
  br label %.preheader, !llvm.loop !6

u_skipWhitespace.exit:                            ; preds = %.preheader
  %16 = call i64 @strtoul(ptr noundef nonnull %.0.i, ptr noundef nonnull %6, i32 noundef 16) #9
  %17 = trunc i64 %16 to i32
  %18 = load ptr, ptr %6, align 8, !tbaa !14
  %19 = icmp ule ptr %18, %.0.i
  %20 = icmp ugt i32 %17, 1114111
  %or.cond5 = select i1 %19, i1 true, i1 %20
  br i1 %or.cond5, label %21, label %22

21:                                               ; preds = %u_skipWhitespace.exit
  store i32 9, ptr %4, align 4, !tbaa !9
  br label %47

22:                                               ; preds = %u_skipWhitespace.exit
  store i32 %17, ptr %2, align 4, !tbaa !18
  store i32 %17, ptr %1, align 4, !tbaa !18
  br label %23

23:                                               ; preds = %.critedge.i44, %22
  %.0.i43 = phi ptr [ %18, %22 ], [ %25, %.critedge.i44 ]
  %24 = load i8, ptr %.0.i43, align 1, !tbaa !3
  switch i8 %24, label %.loopexit [
    i8 32, label %.critedge.i44
    i8 9, label %.critedge.i44
    i8 13, label %.critedge.i44
    i8 10, label %.critedge.i44
    i8 46, label %26
  ]

.critedge.i44:                                    ; preds = %23, %23, %23, %23
  %25 = getelementptr inbounds nuw i8, ptr %.0.i43, i64 1
  br label %23, !llvm.loop !6

26:                                               ; preds = %23
  %27 = getelementptr inbounds nuw i8, ptr %.0.i43, i64 1
  %28 = load i8, ptr %27, align 1, !tbaa !3
  %.not42 = icmp eq i8 %28, 46
  br i1 %.not42, label %29, label %.loopexit

.loopexit:                                        ; preds = %23, %26
  store ptr %18, ptr %3, align 8, !tbaa !14
  br label %47

29:                                               ; preds = %26
  %30 = getelementptr inbounds nuw i8, ptr %.0.i43, i64 2
  br label %31

31:                                               ; preds = %.critedge.i47, %29
  %.0.i46 = phi ptr [ %30, %29 ], [ %33, %.critedge.i47 ]
  %32 = load i8, ptr %.0.i46, align 1, !tbaa !3
  switch i8 %32, label %u_skipWhitespace.exit48 [
    i8 32, label %.critedge.i47
    i8 9, label %.critedge.i47
    i8 13, label %.critedge.i47
    i8 10, label %.critedge.i47
  ]

.critedge.i47:                                    ; preds = %31, %31, %31, %31
  %33 = getelementptr inbounds nuw i8, ptr %.0.i46, i64 1
  br label %31, !llvm.loop !6

u_skipWhitespace.exit48:                          ; preds = %31
  %34 = call i64 @strtoul(ptr noundef nonnull %.0.i46, ptr noundef nonnull %6, i32 noundef 16) #9
  %35 = trunc i64 %34 to i32
  %36 = load ptr, ptr %6, align 8, !tbaa !14
  %37 = icmp ule ptr %36, %.0.i46
  %38 = icmp ugt i32 %35, 1114111
  %or.cond7 = select i1 %37, i1 true, i1 %38
  br i1 %or.cond7, label %39, label %40

39:                                               ; preds = %u_skipWhitespace.exit48
  store i32 9, ptr %4, align 4, !tbaa !9
  br label %47

40:                                               ; preds = %u_skipWhitespace.exit48
  store i32 %35, ptr %2, align 4, !tbaa !18
  %41 = load i32, ptr %1, align 4, !tbaa !18
  %42 = icmp ugt i32 %41, %35
  br i1 %42, label %43, label %44

43:                                               ; preds = %40
  store i32 9, ptr %4, align 4, !tbaa !9
  br label %47

44:                                               ; preds = %40
  store ptr %36, ptr %3, align 8, !tbaa !14
  %45 = add nuw nsw i32 %35, 1
  %46 = sub nuw nsw i32 %45, %41
  br label %47

47:                                               ; preds = %5, %44, %43, %39, %.loopexit, %21, %13
  %.0 = phi i32 [ 0, %13 ], [ 0, %21 ], [ 1, %.loopexit ], [ 0, %39 ], [ 0, %43 ], [ %46, %44 ], [ 0, %5 ]
  call void @llvm.lifetime.end.p0(i64 8, ptr nonnull %6) #9
  ret i32 %.0
}